; Function Attrs: null_pointer_is_valid sspstrong uwtable
define internal i32 @dissect_btgatt_microbit_pin_ad_config(ptr noundef %0, ptr readnone captures(none) %1, ptr noundef %2, ptr noundef readonly captures(none) %3) #1 {
  %5 = getelementptr inbounds nuw i8, ptr %3, i64 8
  %6 = load i8, ptr %5, align 8
  %.fr8 = freeze i8 %6
  %7 = and i8 %.fr8, -7
  %switch.selectcmp.i.i = icmp eq i8 %7, 8
  br i1 %switch.selectcmp.i.i, label %14, label %switch.early.test

switch.early.test:                                ; preds = %4
  switch i8 %.fr8, label %8 [
    i8 30, label %14
    i8 19, label %14
  ]

8:                                                ; preds = %switch.early.test
  %9 = load i32, ptr @hf_gatt_microbit_pin_ad_config, align 4
  %10 = tail call ptr @proto_tree_add_item(ptr noundef %2, i32 noundef %9, ptr noundef %0, i32 noundef 0, i32 noundef 3, i32 noundef -2147483648)
  %11 = load i32, ptr @ett_btgatt_microbit_pin_ad_config, align 4
  %12 = tail call ptr @proto_item_add_subtree(ptr noundef %10, i32 noundef %11)
  tail call void @proto_tree_add_bitmask_list(ptr noundef %12, ptr noundef %0, i32 noundef 0, i32 noundef 3, ptr noundef nonnull @hfx_btgatt_microbit_ad_pins, i32 noundef -2147483648)
  %13 = tail call i32 @tvb_captured_length(ptr noundef %0)
  br label %14

14:                                               ; preds = %switch.early.test, %switch.early.test, %4, %8
  %.0 = phi i32 [ %13, %8 ], [ -1, %switch.early.test ], [ -1, %4 ], [ -1, %switch.early.test ]
  ret i32 %.0
}